target datalayout = "e-m:e-p270:32:32-p271:32:32-p272:64:64-i64:64-i128:128-f80:128-n8:16:32:64-S128"
target triple = "x86_64-pc-linux-gnu"

%"class.Ipopt::DenseVector" = type { %"class.Ipopt::Vector.base", ptr, ptr, ptr, i8, i8, double }
%"class.Ipopt::Vector.base" = type <{ %"class.Ipopt::TaggedObject", %"class.Ipopt::SmartPtr", %"class.Ipopt::CachedResults", i32, [4 x i8], double, i32, [4 x i8], double, i32, [4 x i8], double, i32, [4 x i8], double, i32, [4 x i8], double, i32, [4 x i8], double, i32, [4 x i8], double, i32, i8 }>
%"class.Ipopt::TaggedObject" = type { %"class.Ipopt::ReferencedObject.base", %"class.Ipopt::Subject", i32, i32 }
%"class.Ipopt::ReferencedObject.base" = type <{ ptr, i32 }>
%"class.Ipopt::Subject" = type { ptr, %"class.std::vector" }
%"class.std::vector" = type { %"struct.std::_Vector_base" }
%"struct.std::_Vector_base" = type { %"struct.std::_Vector_base<Ipopt::Observer *, std::allocator<Ipopt::Observer *>>::_Vector_impl" }
%"struct.std::_Vector_base<Ipopt::Observer *, std::allocator<Ipopt::Observer *>>::_Vector_impl" = type { %"struct.std::_Vector_base<Ipopt::Observer *, std::allocator<Ipopt::Observer *>>::_Vector_impl_data" }
%"struct.std::_Vector_base<Ipopt::Observer *, std::allocator<Ipopt::Observer *>>::_Vector_impl_data" = type { ptr, ptr, ptr }
%"class.Ipopt::SmartPtr" = type { ptr }
%"class.Ipopt::CachedResults" = type { ptr, i32, ptr }
%"class.Ipopt::Vector" = type <{ %"class.Ipopt::TaggedObject", %"class.Ipopt::SmartPtr", %"class.Ipopt::CachedResults", i32, [4 x i8], double, i32, [4 x i8], double, i32, [4 x i8], double, i32, [4 x i8], double, i32, [4 x i8], double, i32, [4 x i8], double, i32, [4 x i8], double, i32, i8, [3 x i8] }>
%"class.Ipopt::VectorSpace" = type { %"class.Ipopt::ReferencedObject.base", i32 }

; Function Attrs: mustprogress nounwind uwtable
define linkonce_odr noundef ptr @_ZNK5Ipopt8SmartPtrIKNS_11VectorSpaceEEptEv(ptr noundef nonnull align 8 dereferenceable(8) %0) #1 comdat align 2 {
  %2 = alloca ptr, align 8
  store ptr %0, ptr %2, align 8
  %3 = load ptr, ptr %2, align 8
  %4 = getelementptr inbounds %"class.Ipopt::SmartPtr", ptr %3, i32 0, i32 0
  %5 = load ptr, ptr %4, align 8
  ret ptr %5
}

; Function Attrs: mustprogress nounwind uwtable
define linkonce_odr noundef i32 @_ZNK5Ipopt11VectorSpace3DimEv(ptr noundef nonnull align 8 dereferenceable(16) %0) #1 comdat align 2 {
  %2 = alloca ptr, align 8
  store ptr %0, ptr %2, align 8
  %3 = load ptr, ptr %2, align 8
  %4 = getelementptr inbounds %"class.Ipopt::VectorSpace", ptr %3, i32 0, i32 1
  %5 = load i32, ptr %4, align 4
  ret i32 %5
}

; Function Attrs: mustprogress uwtable
define linkonce_odr noundef i32 @_ZNK5Ipopt6Vector3DimEv(ptr noundef nonnull align 8 dereferenceable(205) %0) #0 comdat align 2 {
  %2 = alloca ptr, align 8
  store ptr %0, ptr %2, align 8
  %3 = load ptr, ptr %2, align 8
  %4 = getelementptr inbounds %"class.Ipopt::Vector", ptr %3, i32 0, i32 1
  %5 = call noundef ptr @_ZNK5Ipopt8SmartPtrIKNS_11VectorSpaceEEptEv(ptr noundef nonnull align 8 dereferenceable(8) %4)
  %6 = call noundef i32 @_ZNK5Ipopt11VectorSpace3DimEv(ptr noundef nonnull align 8 dereferenceable(16) %5)
  ret i32 %6
}

; Function Attrs: mustprogress uwtable
define linkonce_odr noundef ptr @_ZNK5Ipopt16DenseVectorSpace23AllocateInternalStorageEv(ptr noundef nonnull align 8 dereferenceable(160) %0) #0 comdat align 2 {
  %2 = alloca ptr, align 8
  %3 = alloca ptr, align 8
  store ptr %0, ptr %3, align 8
  %4 = load ptr, ptr %3, align 8
  %5 = call noundef i32 @_ZNK5Ipopt11VectorSpace3DimEv(ptr noundef nonnull align 8 dereferenceable(16) %4)
  %6 = icmp sgt i32 %5, 0
  br i1 %6, label %7, label %15

7:                                                ; preds = %1
  %8 = call noundef i32 @_ZNK5Ipopt11VectorSpace3DimEv(ptr noundef nonnull align 8 dereferenceable(16) %4)
  %9 = sext i32 %8 to i64
  %10 = call { i64, i1 } @llvm.umul.with.overflow.i64(i64 %9, i64 8)
  %11 = extractvalue { i64, i1 } %10, 1
  %12 = extractvalue { i64, i1 } %10, 0
  %13 = select i1 %11, i64 -1, i64 %12
  %14 = call noalias noundef nonnull ptr @_Znam(i64 noundef %13) #14
  store ptr %14, ptr %2, align 8
  br label %16

15:                                               ; preds = %1
  store ptr null, ptr %2, align 8
  br label %16

16:                                               ; preds = %15, %7
  %17 = load ptr, ptr %2, align 8
  ret ptr %17
}

; Function Attrs: mustprogress nounwind uwtable
define linkonce_odr noundef zeroext i1 @_ZNK5Ipopt11DenseVector13IsHomogeneousEv(ptr noundef nonnull align 8 dereferenceable(248) %0) #1 comdat align 2 {
  %2 = alloca ptr, align 8
  store ptr %0, ptr %2, align 8
  %3 = load ptr, ptr %2, align 8
  %4 = getelementptr inbounds %"class.Ipopt::DenseVector", ptr %3, i32 0, i32 5
  %5 = load i8, ptr %4, align 1
  %6 = trunc i8 %5 to i1
  ret i1 %6
}

; Function Attrs: mustprogress uwtable
define noundef ptr @_ZNK5Ipopt11DenseVector14ExpandedValuesEv(ptr noundef nonnull align 8 dereferenceable(248) %0) #0 align 2 {
  %2 = alloca ptr, align 8
  %3 = alloca ptr, align 8
  store ptr %0, ptr %3, align 8
  %4 = load ptr, ptr %3, align 8
  %5 = call noundef zeroext i1 @_ZNK5Ipopt11DenseVector13IsHomogeneousEv(ptr noundef nonnull align 8 dereferenceable(248) %4)
  br i1 %5, label %6, label %22

6:                                                ; preds = %1
  %7 = getelementptr inbounds %"class.Ipopt::DenseVector", ptr %4, i32 0, i32 3
  %8 = load ptr, ptr %7, align 8
  %9 = icmp ne ptr %8, null
  br i1 %9, label %15, label %10

10:                                               ; preds = %6
  %11 = getelementptr inbounds %"class.Ipopt::DenseVector", ptr %4, i32 0, i32 1
  %12 = load ptr, ptr %11, align 8
  %13 = call noundef ptr @_ZNK5Ipopt16DenseVectorSpace23AllocateInternalStorageEv(ptr noundef nonnull align 8 dereferenceable(160) %12)
  %14 = getelementptr inbounds %"class.Ipopt::DenseVector", ptr %4, i32 0, i32 3
  store ptr %13, ptr %14, align 8
  br label %15

15:                                               ; preds = %10, %6
  %16 = call noundef i32 @_ZNK5Ipopt6Vector3DimEv(ptr noundef nonnull align 8 dereferenceable(205) %4)
  %17 = getelementptr inbounds %"class.Ipopt::DenseVector", ptr %4, i32 0, i32 6
  %18 = getelementptr inbounds %"class.Ipopt::DenseVector", ptr %4, i32 0, i32 3
  %19 = load ptr, ptr %18, align 8
  call void @_ZN5Ipopt10IpBlasCopyEiPKdiPdi(i32 noundef %16, ptr noundef %17, i32 noundef 0, ptr noundef %19, i32 noundef 1)
  %20 = getelementptr inbounds %"class.Ipopt::DenseVector", ptr %4, i32 0, i32 3
  %21 = load ptr, ptr %20, align 8
  store ptr %21, ptr %2, align 8
  br label %25

22:                                               ; preds = %1
  %23 = getelementptr inbounds %"class.Ipopt::DenseVector", ptr %4, i32 0, i32 2
  %24 = load ptr, ptr %23, align 8
  store ptr %24, ptr %2, align 8
  br label %25

25:                                               ; preds = %22, %15
  %26 = load ptr, ptr %2, align 8
  ret ptr %26
}