; Function Attrs: mustprogress uwtable
define noundef ptr @_ZNK5Ipopt11DenseVector14ExpandedValuesEv(ptr noundef nonnull align 8 dereferenceable(248) %0) local_unnamed_addr #0 align 2 {
  %2 = getelementptr inbounds i8, ptr %0, i64 233
  %3 = load i8, ptr %2, align 1
  %4 = and i8 %3, 1
  %.not2 = icmp eq i8 %4, 0
  br i1 %.not2, label %25, label %5

5:                                                ; preds = %1
  %6 = getelementptr inbounds i8, ptr %0, i64 224
  %7 = load ptr, ptr %6, align 8
  %.not = icmp eq ptr %7, null
  br i1 %.not, label %8, label %18

8:                                                ; preds = %5
  %9 = getelementptr inbounds i8, ptr %0, i64 208
  %10 = load ptr, ptr %9, align 8
  %11 = getelementptr inbounds i8, ptr %10, i64 12
  %12 = load i32, ptr %11, align 4
  %13 = icmp sgt i32 %12, 0
  br i1 %13, label %14, label %_ZNK5Ipopt16DenseVectorSpace23AllocateInternalStorageEv.exit

14:                                               ; preds = %8
  %15 = zext nneg i32 %12 to i64
  %16 = shl nuw nsw i64 %15, 3
  %17 = tail call noalias noundef nonnull ptr @_Znam(i64 noundef %16) #18
  br label %_ZNK5Ipopt16DenseVectorSpace23AllocateInternalStorageEv.exit

_ZNK5Ipopt16DenseVectorSpace23AllocateInternalStorageEv.exit: ; preds = %8, %14
  %.0.i = phi ptr [ %17, %14 ], [ null, %8 ]
  store ptr %.0.i, ptr %6, align 8
  br label %18

18:                                               ; preds = %_ZNK5Ipopt16DenseVectorSpace23AllocateInternalStorageEv.exit, %5
  %19 = phi ptr [ %.0.i, %_ZNK5Ipopt16DenseVectorSpace23AllocateInternalStorageEv.exit ], [ %7, %5 ]
  %20 = getelementptr inbounds i8, ptr %0, i64 56
  %21 = load ptr, ptr %20, align 8
  %22 = getelementptr inbounds i8, ptr %21, i64 12
  %23 = load i32, ptr %22, align 4
  %24 = getelementptr inbounds i8, ptr %0, i64 240
  tail call void @_ZN5Ipopt10IpBlasCopyEiPKdiPdi(i32 noundef %23, ptr noundef nonnull %24, i32 noundef 0, ptr noundef %19, i32 noundef 1)
  br label %27

25:                                               ; preds = %1
  %26 = getelementptr inbounds i8, ptr %0, i64 216
  br label %27

27:                                               ; preds = %25, %18
  %.0.in = phi ptr [ %6, %18 ], [ %26, %25 ]
  %.0 = load ptr, ptr %.0.in, align 8
  ret ptr %.0
}